; Function Attrs: mustprogress nofree norecurse nosync nounwind memory(readwrite, inaccessiblemem: none) uwtable
define void @_ZNK8QuantLib20FdmDirichletBoundary18applyAfterApplyingERNS_5ArrayE(ptr nocapture noundef nonnull readonly align 8 dereferenceable(56) %this, ptr nocapture noundef nonnull readonly align 8 dereferenceable(16) %x) unnamed_addr #9 align 2 {
entry:
  %indices_ = getelementptr inbounds nuw i8, ptr %this, i64 24
  %0 = load ptr, ptr %indices_, align 8, !tbaa !25
  %_M_finish.i = getelementptr inbounds nuw i8, ptr %this, i64 32
  %1 = load ptr, ptr %_M_finish.i, align 8, !tbaa !25
  %cmp.i.not4 = icmp eq ptr %0, %1
  br i1 %cmp.i.not4, label %for.cond.cleanup, label %for.body.lr.ph

for.body.lr.ph:                                   ; preds = %entry
  %valueOnBoundary_ = getelementptr inbounds nuw i8, ptr %this, i64 16
  %2 = load ptr, ptr %x, align 8, !tbaa !25
  %.pre = load double, ptr %valueOnBoundary_, align 8, !tbaa !17
  br label %for.body

for.cond.cleanup:                                 ; preds = %for.body, %entry
  ret void

for.body:                                         ; preds = %for.body.lr.ph, %for.body
  %__begin1.sroa.0.05 = phi ptr [ %0, %for.body.lr.ph ], [ %incdec.ptr.i, %for.body ]
  %3 = load i64, ptr %__begin1.sroa.0.05, align 8, !tbaa !30
  %arrayidx.i = getelementptr inbounds nuw double, ptr %2, i64 %3
  store double %.pre, ptr %arrayidx.i, align 8, !tbaa !26
  %incdec.ptr.i = getelementptr inbounds nuw i8, ptr %__begin1.sroa.0.05, i64 8
  %cmp.i.not = icmp eq ptr %incdec.ptr.i, %1
  br i1 %cmp.i.not, label %for.cond.cleanup, label %for.body
}